target datalayout = "e-m:e-p270:32:32-p271:32:32-p272:64:64-i64:64-i128:128-f80:128-n8:16:32:64-S128"
target triple = "x86_64-pc-linux-gnu"

%struct.Nm_Man_t_ = type { ptr, ptr, i32, i32, i32, i32, ptr }
%struct.Nm_Entry_t_ = type { i32, i32, ptr, ptr, ptr, [0 x i8] }

@.str = private unnamed_addr constant [12 x i8] c"I2N table: \00", align 1
@.str.1 = private unnamed_addr constant [4 x i8] c"%d \00", align 1
@.str.2 = private unnamed_addr constant [2 x i8] c"\0A\00", align 1
@.str.3 = private unnamed_addr constant [12 x i8] c"N2I table: \00", align 1

; Function Attrs: nounwind uwtable
define void @Nm_ManProfile(ptr noundef %0) #0 {
  %2 = alloca ptr, align 8
  %3 = alloca ptr, align 8
  %4 = alloca i32, align 4
  %5 = alloca i32, align 4
  store ptr %0, ptr %2, align 8, !tbaa !3
  call void @llvm.lifetime.start.p0(i64 8, ptr %3) #8
  call void @llvm.lifetime.start.p0(i64 4, ptr %4) #8
  call void @llvm.lifetime.start.p0(i64 4, ptr %5) #8
  %6 = call i32 (ptr, ...) @printf(ptr noundef @.str)
  store i32 0, ptr %5, align 4, !tbaa !28
  br label %7

7:                                                ; preds = %34, %1
  %8 = load i32, ptr %5, align 4, !tbaa !28
  %9 = load ptr, ptr %2, align 8, !tbaa !3
  %10 = getelementptr inbounds nuw %struct.Nm_Man_t_, ptr %9, i32 0, i32 2
  %11 = load i32, ptr %10, align 8, !tbaa !15
  %12 = icmp slt i32 %8, %11
  br i1 %12, label %13, label %37

13:                                               ; preds = %7
  store i32 0, ptr %4, align 4, !tbaa !28
  %14 = load ptr, ptr %2, align 8, !tbaa !3
  %15 = getelementptr inbounds nuw %struct.Nm_Man_t_, ptr %14, i32 0, i32 0
  %16 = load ptr, ptr %15, align 8, !tbaa !17
  %17 = load i32, ptr %5, align 4, !tbaa !28
  %18 = sext i32 %17 to i64
  %19 = getelementptr inbounds ptr, ptr %16, i64 %18
  %20 = load ptr, ptr %19, align 8, !tbaa !8
  store ptr %20, ptr %3, align 8, !tbaa !8
  br label %21

21:                                               ; preds = %27, %13
  %22 = load ptr, ptr %3, align 8, !tbaa !8
  %23 = icmp ne ptr %22, null
  br i1 %23, label %24, label %31

24:                                               ; preds = %21
  %25 = load i32, ptr %4, align 4, !tbaa !28
  %26 = add nsw i32 %25, 1
  store i32 %26, ptr %4, align 4, !tbaa !28
  br label %27

27:                                               ; preds = %24
  %28 = load ptr, ptr %3, align 8, !tbaa !8
  %29 = getelementptr inbounds nuw %struct.Nm_Entry_t_, ptr %28, i32 0, i32 2
  %30 = load ptr, ptr %29, align 8, !tbaa !21
  store ptr %30, ptr %3, align 8, !tbaa !8
  br label %21, !llvm.loop !45

31:                                               ; preds = %21
  %32 = load i32, ptr %4, align 4, !tbaa !28
  %33 = call i32 (ptr, ...) @printf(ptr noundef @.str.1, i32 noundef %32)
  br label %34

34:                                               ; preds = %31
  %35 = load i32, ptr %5, align 4, !tbaa !28
  %36 = add nsw i32 %35, 1
  store i32 %36, ptr %5, align 4, !tbaa !28
  br label %7, !llvm.loop !46

37:                                               ; preds = %7
  %38 = call i32 (ptr, ...) @printf(ptr noundef @.str.2)
  %39 = call i32 (ptr, ...) @printf(ptr noundef @.str.3)
  store i32 0, ptr %5, align 4, !tbaa !28
  br label %40

40:                                               ; preds = %67, %37
  %41 = load i32, ptr %5, align 4, !tbaa !28
  %42 = load ptr, ptr %2, align 8, !tbaa !3
  %43 = getelementptr inbounds nuw %struct.Nm_Man_t_, ptr %42, i32 0, i32 2
  %44 = load i32, ptr %43, align 8, !tbaa !15
  %45 = icmp slt i32 %41, %44
  br i1 %45, label %46, label %70

46:                                               ; preds = %40
  store i32 0, ptr %4, align 4, !tbaa !28
  %47 = load ptr, ptr %2, align 8, !tbaa !3
  %48 = getelementptr inbounds nuw %struct.Nm_Man_t_, ptr %47, i32 0, i32 1
  %49 = load ptr, ptr %48, align 8, !tbaa !23
  %50 = load i32, ptr %5, align 4, !tbaa !28
  %51 = sext i32 %50 to i64
  %52 = getelementptr inbounds ptr, ptr %49, i64 %51
  %53 = load ptr, ptr %52, align 8, !tbaa !8
  store ptr %53, ptr %3, align 8, !tbaa !8
  br label %54

54:                                               ; preds = %60, %46
  %55 = load ptr, ptr %3, align 8, !tbaa !8
  %56 = icmp ne ptr %55, null
  br i1 %56, label %57, label %64

57:                                               ; preds = %54
  %58 = load i32, ptr %4, align 4, !tbaa !28
  %59 = add nsw i32 %58, 1
  store i32 %59, ptr %4, align 4, !tbaa !28
  br label %60

60:                                               ; preds = %57
  %61 = load ptr, ptr %3, align 8, !tbaa !8
  %62 = getelementptr inbounds nuw %struct.Nm_Entry_t_, ptr %61, i32 0, i32 3
  %63 = load ptr, ptr %62, align 8, !tbaa !24
  store ptr %63, ptr %3, align 8, !tbaa !8
  br label %54, !llvm.loop !47

64:                                               ; preds = %54
  %65 = load i32, ptr %4, align 4, !tbaa !28
  %66 = call i32 (ptr, ...) @printf(ptr noundef @.str.1, i32 noundef %65)
  br label %67

67:                                               ; preds = %64
  %68 = load i32, ptr %5, align 4, !tbaa !28
  %69 = add nsw i32 %68, 1
  store i32 %69, ptr %5, align 4, !tbaa !28
  br label %40, !llvm.loop !48

70:                                               ; preds = %40
  %71 = call i32 (ptr, ...) @printf(ptr noundef @.str.2)
  call void @llvm.lifetime.end.p0(i64 4, ptr %5) #8
  call void @llvm.lifetime.end.p0(i64 4, ptr %4) #8
  call void @llvm.lifetime.end.p0(i64 8, ptr %3) #8
  ret void
}