; Function Attrs: nofree nounwind uwtable
define void @Nm_ManProfile(ptr noundef readonly captures(none) %0) local_unnamed_addr #6 {
  %2 = tail call i32 (ptr, ...) @printf(ptr noundef nonnull dereferenceable(1) @.str)
  %3 = getelementptr inbounds nuw i8, ptr %0, i64 16
  %4 = load i32, ptr %3, align 8, !tbaa !11
  %5 = icmp sgt i32 %4, 0
  br i1 %5, label %.lr.ph29, label %._crit_edge30

.lr.ph29:                                         ; preds = %1, %._crit_edge
  %indvars.iv = phi i64 [ %indvars.iv.next, %._crit_edge ], [ 0, %1 ]
  %6 = load ptr, ptr %0, align 8, !tbaa !13
  %7 = getelementptr inbounds nuw ptr, ptr %6, i64 %indvars.iv
  %.01923 = load ptr, ptr %7, align 8, !tbaa !19
  %.not2224 = icmp eq ptr %.01923, null
  br i1 %.not2224, label %._crit_edge, label %.lr.ph

.lr.ph:                                           ; preds = %.lr.ph29, %.lr.ph
  %.01926 = phi ptr [ %.019, %.lr.ph ], [ %.01923, %.lr.ph29 ]
  %.01725 = phi i32 [ %8, %.lr.ph ], [ 0, %.lr.ph29 ]
  %8 = add nuw nsw i32 %.01725, 1
  %9 = getelementptr inbounds nuw i8, ptr %.01926, i64 8
  %.019 = load ptr, ptr %9, align 8, !tbaa !19
  %.not22 = icmp eq ptr %.019, null
  br i1 %.not22, label %._crit_edge, label %.lr.ph, !llvm.loop !40

._crit_edge:                                      ; preds = %.lr.ph, %.lr.ph29
  %.017.lcssa = phi i32 [ 0, %.lr.ph29 ], [ %8, %.lr.ph ]
  %10 = tail call i32 (ptr, ...) @printf(ptr noundef nonnull dereferenceable(1) @.str.1, i32 noundef %.017.lcssa)
  %indvars.iv.next = add nuw nsw i64 %indvars.iv, 1
  %11 = load i32, ptr %3, align 8, !tbaa !11
  %12 = sext i32 %11 to i64
  %13 = icmp slt i64 %indvars.iv.next, %12
  br i1 %13, label %.lr.ph29, label %._crit_edge30, !llvm.loop !41

._crit_edge30:                                    ; preds = %._crit_edge, %1
  %putchar = tail call i32 @putchar(i32 10)
  %14 = tail call i32 (ptr, ...) @printf(ptr noundef nonnull dereferenceable(1) @.str.3)
  %15 = load i32, ptr %3, align 8, !tbaa !11
  %16 = icmp sgt i32 %15, 0
  br i1 %16, label %.lr.ph41, label %._crit_edge42

.lr.ph41:                                         ; preds = %._crit_edge30
  %17 = getelementptr inbounds nuw i8, ptr %0, i64 8
  br label %18

18:                                               ; preds = %.lr.ph41, %._crit_edge37
  %indvars.iv45 = phi i64 [ 0, %.lr.ph41 ], [ %indvars.iv.next46, %._crit_edge37 ]
  %19 = load ptr, ptr %17, align 8, !tbaa !14
  %20 = getelementptr inbounds nuw ptr, ptr %19, i64 %indvars.iv45
  %.12031 = load ptr, ptr %20, align 8, !tbaa !19
  %.not32 = icmp eq ptr %.12031, null
  br i1 %.not32, label %._crit_edge37, label %.lr.ph36

.lr.ph36:                                         ; preds = %18, %.lr.ph36
  %.12034 = phi ptr [ %.120, %.lr.ph36 ], [ %.12031, %18 ]
  %.11833 = phi i32 [ %21, %.lr.ph36 ], [ 0, %18 ]
  %21 = add nuw nsw i32 %.11833, 1
  %22 = getelementptr inbounds nuw i8, ptr %.12034, i64 16
  %.120 = load ptr, ptr %22, align 8, !tbaa !19
  %.not = icmp eq ptr %.120, null
  br i1 %.not, label %._crit_edge37, label %.lr.ph36, !llvm.loop !42

._crit_edge37:                                    ; preds = %.lr.ph36, %18
  %.118.lcssa = phi i32 [ 0, %18 ], [ %21, %.lr.ph36 ]
  %23 = tail call i32 (ptr, ...) @printf(ptr noundef nonnull dereferenceable(1) @.str.1, i32 noundef %.118.lcssa)
  %indvars.iv.next46 = add nuw nsw i64 %indvars.iv45, 1
  %24 = load i32, ptr %3, align 8, !tbaa !11
  %25 = sext i32 %24 to i64
  %26 = icmp slt i64 %indvars.iv.next46, %25
  br i1 %26, label %18, label %._crit_edge42, !llvm.loop !43

._crit_edge42:                                    ; preds = %._crit_edge37, %._crit_edge30
  %putchar21 = tail call i32 @putchar(i32 10)
  ret void
}